target datalayout = "e-m:e-p270:32:32-p271:32:32-p272:64:64-i64:64-i128:128-f80:128-n8:16:32:64-S128"
target triple = "x86_64-pc-linux-gnu"

%struct.jpeg_decompress_struct = type { ptr, ptr, ptr, ptr, i32, i32, ptr, i32, i32, i32, i32, i32, i32, i32, double, i32, i32, i32, i32, i32, i32, i32, i32, i32, i32, i32, i32, i32, i32, i32, i32, i32, i32, ptr, i32, i32, i32, i32, i32, ptr, [4 x ptr], [4 x ptr], [4 x ptr], i32, ptr, i32, i32, [16 x i8], [16 x i8], [16 x i8], i32, i32, i8, i8, i8, i16, i16, i32, i8, i32, ptr, i32, i32, i32, i32, ptr, i32, [4 x ptr], i32, i32, i32, [10 x i32], i32, i32, i32, i32, i32, ptr, ptr, ptr, ptr, ptr, ptr, ptr, ptr, ptr, ptr, ptr }
%struct.jpeg_component_info = type { i32, i32, i32, i32, i32, i32, i32, i32, i32, i32, i32, i32, i32, i32, i32, i32, i32, i32, i32, ptr, ptr }

; Function Attrs: nounwind uwtable
define void @jpeg_idct_5x5(ptr noundef %0, ptr noundef %1, ptr noundef %2, ptr noundef %3, i32 noundef %4) #0 {
  %6 = alloca ptr, align 8
  %7 = alloca ptr, align 8
  %8 = alloca ptr, align 8
  %9 = alloca ptr, align 8
  %10 = alloca i32, align 4
  %11 = alloca i64, align 8
  %12 = alloca i64, align 8
  %13 = alloca i64, align 8
  %14 = alloca i64, align 8
  %15 = alloca i64, align 8
  %16 = alloca i64, align 8
  %17 = alloca i64, align 8
  %18 = alloca i64, align 8
  %19 = alloca ptr, align 8
  %20 = alloca ptr, align 8
  %21 = alloca ptr, align 8
  %22 = alloca ptr, align 8
  %23 = alloca ptr, align 8
  %24 = alloca i32, align 4
  %25 = alloca [25 x i32], align 16
  store ptr %0, ptr %6, align 8, !tbaa !3
  store ptr %1, ptr %7, align 8, !tbaa !8
  store ptr %2, ptr %8, align 8, !tbaa !9
  store ptr %3, ptr %9, align 8, !tbaa !11
  store i32 %4, ptr %10, align 4, !tbaa !13
  call void @llvm.lifetime.start.p0(i64 8, ptr %11) #2
  call void @llvm.lifetime.start.p0(i64 8, ptr %12) #2
  call void @llvm.lifetime.start.p0(i64 8, ptr %13) #2
  call void @llvm.lifetime.start.p0(i64 8, ptr %14) #2
  call void @llvm.lifetime.start.p0(i64 8, ptr %15) #2
  call void @llvm.lifetime.start.p0(i64 8, ptr %16) #2
  call void @llvm.lifetime.start.p0(i64 8, ptr %17) #2
  call void @llvm.lifetime.start.p0(i64 8, ptr %18) #2
  call void @llvm.lifetime.start.p0(i64 8, ptr %19) #2
  call void @llvm.lifetime.start.p0(i64 8, ptr %20) #2
  call void @llvm.lifetime.start.p0(i64 8, ptr %21) #2
  call void @llvm.lifetime.start.p0(i64 8, ptr %22) #2
  call void @llvm.lifetime.start.p0(i64 8, ptr %23) #2
  %26 = load ptr, ptr %6, align 8, !tbaa !3
  %27 = getelementptr inbounds nuw %struct.jpeg_decompress_struct, ptr %26, i32 0, i32 65
  %28 = load ptr, ptr %27, align 8, !tbaa !15
  %29 = getelementptr inbounds i8, ptr %28, i64 128
  store ptr %29, ptr %23, align 8, !tbaa !37
  call void @llvm.lifetime.start.p0(i64 4, ptr %24) #2
  call void @llvm.lifetime.start.p0(i64 100, ptr %25) #2
  %30 = load ptr, ptr %8, align 8, !tbaa !9
  store ptr %30, ptr %19, align 8, !tbaa !9
  %31 = load ptr, ptr %7, align 8, !tbaa !8
  %32 = getelementptr inbounds nuw %struct.jpeg_component_info, ptr %31, i32 0, i32 20
  %33 = load ptr, ptr %32, align 8, !tbaa !38
  store ptr %33, ptr %20, align 8, !tbaa !9
  %34 = getelementptr inbounds [25 x i32], ptr %25, i64 0, i64 0
  store ptr %34, ptr %21, align 8, !tbaa !40
  store i32 0, ptr %24, align 4, !tbaa !13
  br label %35

35:                                               ; preds = %159, %5
  %36 = load i32, ptr %24, align 4, !tbaa !13
  %37 = icmp slt i32 %36, 5
  br i1 %37, label %38, label %168

38:                                               ; preds = %35
  %39 = load ptr, ptr %19, align 8, !tbaa !9
  %40 = getelementptr inbounds i16, ptr %39, i64 0
  %41 = load i16, ptr %40, align 2, !tbaa !41
  %42 = sext i16 %41 to i32
  %43 = load ptr, ptr %20, align 8, !tbaa !9
  %44 = getelementptr inbounds i16, ptr %43, i64 0
  %45 = load i16, ptr %44, align 2, !tbaa !41
  %46 = sext i16 %45 to i32
  %47 = mul nsw i32 %42, %46
  %48 = sext i32 %47 to i64
  store i64 %48, ptr %15, align 8, !tbaa !42
  %49 = load i64, ptr %15, align 8, !tbaa !42
  %50 = shl i64 %49, 13
  store i64 %50, ptr %15, align 8, !tbaa !42
  %51 = load i64, ptr %15, align 8, !tbaa !42
  %52 = add nsw i64 %51, 1024
  store i64 %52, ptr %15, align 8, !tbaa !42
  %53 = load ptr, ptr %19, align 8, !tbaa !9
  %54 = getelementptr inbounds i16, ptr %53, i64 16
  %55 = load i16, ptr %54, align 2, !tbaa !41
  %56 = sext i16 %55 to i32
  %57 = load ptr, ptr %20, align 8, !tbaa !9
  %58 = getelementptr inbounds i16, ptr %57, i64 16
  %59 = load i16, ptr %58, align 2, !tbaa !41
  %60 = sext i16 %59 to i32
  %61 = mul nsw i32 %56, %60
  %62 = sext i32 %61 to i64
  store i64 %62, ptr %11, align 8, !tbaa !42
  %63 = load ptr, ptr %19, align 8, !tbaa !9
  %64 = getelementptr inbounds i16, ptr %63, i64 32
  %65 = load i16, ptr %64, align 2, !tbaa !41
  %66 = sext i16 %65 to i32
  %67 = load ptr, ptr %20, align 8, !tbaa !9
  %68 = getelementptr inbounds i16, ptr %67, i64 32
  %69 = load i16, ptr %68, align 2, !tbaa !41
  %70 = sext i16 %69 to i32
  %71 = mul nsw i32 %66, %70
  %72 = sext i32 %71 to i64
  store i64 %72, ptr %12, align 8, !tbaa !42
  %73 = load i64, ptr %11, align 8, !tbaa !42
  %74 = load i64, ptr %12, align 8, !tbaa !42
  %75 = add nsw i64 %73, %74
  %76 = mul nsw i64 %75, 6476
  store i64 %76, ptr %16, align 8, !tbaa !42
  %77 = load i64, ptr %11, align 8, !tbaa !42
  %78 = load i64, ptr %12, align 8, !tbaa !42
  %79 = sub nsw i64 %77, %78
  %80 = mul nsw i64 %79, 2896
  store i64 %80, ptr %17, align 8, !tbaa !42
  %81 = load i64, ptr %15, align 8, !tbaa !42
  %82 = load i64, ptr %17, align 8, !tbaa !42
  %83 = add nsw i64 %81, %82
  store i64 %83, ptr %18, align 8, !tbaa !42
  %84 = load i64, ptr %18, align 8, !tbaa !42
  %85 = load i64, ptr %16, align 8, !tbaa !42
  %86 = add nsw i64 %84, %85
  store i64 %86, ptr %13, align 8, !tbaa !42
  %87 = load i64, ptr %18, align 8, !tbaa !42
  %88 = load i64, ptr %16, align 8, !tbaa !42
  %89 = sub nsw i64 %87, %88
  store i64 %89, ptr %14, align 8, !tbaa !42
  %90 = load i64, ptr %17, align 8, !tbaa !42
  %91 = shl i64 %90, 2
  %92 = load i64, ptr %15, align 8, !tbaa !42
  %93 = sub nsw i64 %92, %91
  store i64 %93, ptr %15, align 8, !tbaa !42
  %94 = load ptr, ptr %19, align 8, !tbaa !9
  %95 = getelementptr inbounds i16, ptr %94, i64 8
  %96 = load i16, ptr %95, align 2, !tbaa !41
  %97 = sext i16 %96 to i32
  %98 = load ptr, ptr %20, align 8, !tbaa !9
  %99 = getelementptr inbounds i16, ptr %98, i64 8
  %100 = load i16, ptr %99, align 2, !tbaa !41
  %101 = sext i16 %100 to i32
  %102 = mul nsw i32 %97, %101
  %103 = sext i32 %102 to i64
  store i64 %103, ptr %17, align 8, !tbaa !42
  %104 = load ptr, ptr %19, align 8, !tbaa !9
  %105 = getelementptr inbounds i16, ptr %104, i64 24
  %106 = load i16, ptr %105, align 2, !tbaa !41
  %107 = sext i16 %106 to i32
  %108 = load ptr, ptr %20, align 8, !tbaa !9
  %109 = getelementptr inbounds i16, ptr %108, i64 24
  %110 = load i16, ptr %109, align 2, !tbaa !41
  %111 = sext i16 %110 to i32
  %112 = mul nsw i32 %107, %111
  %113 = sext i32 %112 to i64
  store i64 %113, ptr %18, align 8, !tbaa !42
  %114 = load i64, ptr %17, align 8, !tbaa !42
  %115 = load i64, ptr %18, align 8, !tbaa !42
  %116 = add nsw i64 %114, %115
  %117 = mul nsw i64 %116, 6810
  store i64 %117, ptr %16, align 8, !tbaa !42
  %118 = load i64, ptr %16, align 8, !tbaa !42
  %119 = load i64, ptr %17, align 8, !tbaa !42
  %120 = mul nsw i64 %119, 4209
  %121 = add nsw i64 %118, %120
  store i64 %121, ptr %11, align 8, !tbaa !42
  %122 = load i64, ptr %16, align 8, !tbaa !42
  %123 = load i64, ptr %18, align 8, !tbaa !42
  %124 = mul nsw i64 %123, 17828
  %125 = sub nsw i64 %122, %124
  store i64 %125, ptr %12, align 8, !tbaa !42
  %126 = load i64, ptr %13, align 8, !tbaa !42
  %127 = load i64, ptr %11, align 8, !tbaa !42
  %128 = add nsw i64 %126, %127
  %129 = ashr i64 %128, 11
  %130 = trunc i64 %129 to i32
  %131 = load ptr, ptr %21, align 8, !tbaa !40
  %132 = getelementptr inbounds i32, ptr %131, i64 0
  store i32 %130, ptr %132, align 4, !tbaa !13
  %133 = load i64, ptr %13, align 8, !tbaa !42
  %134 = load i64, ptr %11, align 8, !tbaa !42
  %135 = sub nsw i64 %133, %134
  %136 = ashr i64 %135, 11
  %137 = trunc i64 %136 to i32
  %138 = load ptr, ptr %21, align 8, !tbaa !40
  %139 = getelementptr inbounds i32, ptr %138, i64 20
  store i32 %137, ptr %139, align 4, !tbaa !13
  %140 = load i64, ptr %14, align 8, !tbaa !42
  %141 = load i64, ptr %12, align 8, !tbaa !42
  %142 = add nsw i64 %140, %141
  %143 = ashr i64 %142, 11
  %144 = trunc i64 %143 to i32
  %145 = load ptr, ptr %21, align 8, !tbaa !40
  %146 = getelementptr inbounds i32, ptr %145, i64 5
  store i32 %144, ptr %146, align 4, !tbaa !13
  %147 = load i64, ptr %14, align 8, !tbaa !42
  %148 = load i64, ptr %12, align 8, !tbaa !42
  %149 = sub nsw i64 %147, %148
  %150 = ashr i64 %149, 11
  %151 = trunc i64 %150 to i32
  %152 = load ptr, ptr %21, align 8, !tbaa !40
  %153 = getelementptr inbounds i32, ptr %152, i64 15
  store i32 %151, ptr %153, align 4, !tbaa !13
  %154 = load i64, ptr %15, align 8, !tbaa !42
  %155 = ashr i64 %154, 11
  %156 = trunc i64 %155 to i32
  %157 = load ptr, ptr %21, align 8, !tbaa !40
  %158 = getelementptr inbounds i32, ptr %157, i64 10
  store i32 %156, ptr %158, align 4, !tbaa !13
  br label %159

159:                                              ; preds = %38
  %160 = load i32, ptr %24, align 4, !tbaa !13
  %161 = add nsw i32 %160, 1
  store i32 %161, ptr %24, align 4, !tbaa !13
  %162 = load ptr, ptr %19, align 8, !tbaa !9
  %163 = getelementptr inbounds nuw i16, ptr %162, i32 1
  store ptr %163, ptr %19, align 8, !tbaa !9
  %164 = load ptr, ptr %20, align 8, !tbaa !9
  %165 = getelementptr inbounds nuw i16, ptr %164, i32 1
  store ptr %165, ptr %20, align 8, !tbaa !9
  %166 = load ptr, ptr %21, align 8, !tbaa !40
  %167 = getelementptr inbounds nuw i32, ptr %166, i32 1
  store ptr %167, ptr %21, align 8, !tbaa !40
  br label %35, !llvm.loop !52

168:                                              ; preds = %35
  %169 = getelementptr inbounds [25 x i32], ptr %25, i64 0, i64 0
  store ptr %169, ptr %21, align 8, !tbaa !40
  store i32 0, ptr %24, align 4, !tbaa !13
  br label %170

170:                                              ; preds = %298, %168
  %171 = load i32, ptr %24, align 4, !tbaa !13
  %172 = icmp slt i32 %171, 5
  br i1 %172, label %173, label %301

173:                                              ; preds = %170
  %174 = load ptr, ptr %9, align 8, !tbaa !11
  %175 = load i32, ptr %24, align 4, !tbaa !13
  %176 = sext i32 %175 to i64
  %177 = getelementptr inbounds ptr, ptr %174, i64 %176
  %178 = load ptr, ptr %177, align 8, !tbaa !37
  %179 = load i32, ptr %10, align 4, !tbaa !13
  %180 = zext i32 %179 to i64
  %181 = getelementptr inbounds nuw i8, ptr %178, i64 %180
  store ptr %181, ptr %22, align 8, !tbaa !37
  %182 = load ptr, ptr %21, align 8, !tbaa !40
  %183 = getelementptr inbounds i32, ptr %182, i64 0
  %184 = load i32, ptr %183, align 4, !tbaa !13
  %185 = sext i32 %184 to i64
  %186 = add nsw i64 %185, 16
  store i64 %186, ptr %15, align 8, !tbaa !42
  %187 = load i64, ptr %15, align 8, !tbaa !42
  %188 = shl i64 %187, 13
  store i64 %188, ptr %15, align 8, !tbaa !42
  %189 = load ptr, ptr %21, align 8, !tbaa !40
  %190 = getelementptr inbounds i32, ptr %189, i64 2
  %191 = load i32, ptr %190, align 4, !tbaa !13
  %192 = sext i32 %191 to i64
  store i64 %192, ptr %11, align 8, !tbaa !42
  %193 = load ptr, ptr %21, align 8, !tbaa !40
  %194 = getelementptr inbounds i32, ptr %193, i64 4
  %195 = load i32, ptr %194, align 4, !tbaa !13
  %196 = sext i32 %195 to i64
  store i64 %196, ptr %12, align 8, !tbaa !42
  %197 = load i64, ptr %11, align 8, !tbaa !42
  %198 = load i64, ptr %12, align 8, !tbaa !42
  %199 = add nsw i64 %197, %198
  %200 = mul nsw i64 %199, 6476
  store i64 %200, ptr %16, align 8, !tbaa !42
  %201 = load i64, ptr %11, align 8, !tbaa !42
  %202 = load i64, ptr %12, align 8, !tbaa !42
  %203 = sub nsw i64 %201, %202
  %204 = mul nsw i64 %203, 2896
  store i64 %204, ptr %17, align 8, !tbaa !42
  %205 = load i64, ptr %15, align 8, !tbaa !42
  %206 = load i64, ptr %17, align 8, !tbaa !42
  %207 = add nsw i64 %205, %206
  store i64 %207, ptr %18, align 8, !tbaa !42
  %208 = load i64, ptr %18, align 8, !tbaa !42
  %209 = load i64, ptr %16, align 8, !tbaa !42
  %210 = add nsw i64 %208, %209
  store i64 %210, ptr %13, align 8, !tbaa !42
  %211 = load i64, ptr %18, align 8, !tbaa !42
  %212 = load i64, ptr %16, align 8, !tbaa !42
  %213 = sub nsw i64 %211, %212
  store i64 %213, ptr %14, align 8, !tbaa !42
  %214 = load i64, ptr %17, align 8, !tbaa !42
  %215 = shl i64 %214, 2
  %216 = load i64, ptr %15, align 8, !tbaa !42
  %217 = sub nsw i64 %216, %215
  store i64 %217, ptr %15, align 8, !tbaa !42
  %218 = load ptr, ptr %21, align 8, !tbaa !40
  %219 = getelementptr inbounds i32, ptr %218, i64 1
  %220 = load i32, ptr %219, align 4, !tbaa !13
  %221 = sext i32 %220 to i64
  store i64 %221, ptr %17, align 8, !tbaa !42
  %222 = load ptr, ptr %21, align 8, !tbaa !40
  %223 = getelementptr inbounds i32, ptr %222, i64 3
  %224 = load i32, ptr %223, align 4, !tbaa !13
  %225 = sext i32 %224 to i64
  store i64 %225, ptr %18, align 8, !tbaa !42
  %226 = load i64, ptr %17, align 8, !tbaa !42
  %227 = load i64, ptr %18, align 8, !tbaa !42
  %228 = add nsw i64 %226, %227
  %229 = mul nsw i64 %228, 6810
  store i64 %229, ptr %16, align 8, !tbaa !42
  %230 = load i64, ptr %16, align 8, !tbaa !42
  %231 = load i64, ptr %17, align 8, !tbaa !42
  %232 = mul nsw i64 %231, 4209
  %233 = add nsw i64 %230, %232
  store i64 %233, ptr %11, align 8, !tbaa !42
  %234 = load i64, ptr %16, align 8, !tbaa !42
  %235 = load i64, ptr %18, align 8, !tbaa !42
  %236 = mul nsw i64 %235, 17828
  %237 = sub nsw i64 %234, %236
  store i64 %237, ptr %12, align 8, !tbaa !42
  %238 = load ptr, ptr %23, align 8, !tbaa !37
  %239 = load i64, ptr %13, align 8, !tbaa !42
  %240 = load i64, ptr %11, align 8, !tbaa !42
  %241 = add nsw i64 %239, %240
  %242 = ashr i64 %241, 18
  %243 = trunc i64 %242 to i32
  %244 = and i32 %243, 1023
  %245 = sext i32 %244 to i64
  %246 = getelementptr inbounds i8, ptr %238, i64 %245
  %247 = load i8, ptr %246, align 1, !tbaa !46
  %248 = load ptr, ptr %22, align 8, !tbaa !37
  %249 = getelementptr inbounds i8, ptr %248, i64 0
  store i8 %247, ptr %249, align 1, !tbaa !46
  %250 = load ptr, ptr %23, align 8, !tbaa !37
  %251 = load i64, ptr %13, align 8, !tbaa !42
  %252 = load i64, ptr %11, align 8, !tbaa !42
  %253 = sub nsw i64 %251, %252
  %254 = ashr i64 %253, 18
  %255 = trunc i64 %254 to i32
  %256 = and i32 %255, 1023
  %257 = sext i32 %256 to i64
  %258 = getelementptr inbounds i8, ptr %250, i64 %257
  %259 = load i8, ptr %258, align 1, !tbaa !46
  %260 = load ptr, ptr %22, align 8, !tbaa !37
  %261 = getelementptr inbounds i8, ptr %260, i64 4
  store i8 %259, ptr %261, align 1, !tbaa !46
  %262 = load ptr, ptr %23, align 8, !tbaa !37
  %263 = load i64, ptr %14, align 8, !tbaa !42
  %264 = load i64, ptr %12, align 8, !tbaa !42
  %265 = add nsw i64 %263, %264
  %266 = ashr i64 %265, 18
  %267 = trunc i64 %266 to i32
  %268 = and i32 %267, 1023
  %269 = sext i32 %268 to i64
  %270 = getelementptr inbounds i8, ptr %262, i64 %269
  %271 = load i8, ptr %270, align 1, !tbaa !46
  %272 = load ptr, ptr %22, align 8, !tbaa !37
  %273 = getelementptr inbounds i8, ptr %272, i64 1
  store i8 %271, ptr %273, align 1, !tbaa !46
  %274 = load ptr, ptr %23, align 8, !tbaa !37
  %275 = load i64, ptr %14, align 8, !tbaa !42
  %276 = load i64, ptr %12, align 8, !tbaa !42
  %277 = sub nsw i64 %275, %276
  %278 = ashr i64 %277, 18
  %279 = trunc i64 %278 to i32
  %280 = and i32 %279, 1023
  %281 = sext i32 %280 to i64
  %282 = getelementptr inbounds i8, ptr %274, i64 %281
  %283 = load i8, ptr %282, align 1, !tbaa !46
  %284 = load ptr, ptr %22, align 8, !tbaa !37
  %285 = getelementptr inbounds i8, ptr %284, i64 3
  store i8 %283, ptr %285, align 1, !tbaa !46
  %286 = load ptr, ptr %23, align 8, !tbaa !37
  %287 = load i64, ptr %15, align 8, !tbaa !42
  %288 = ashr i64 %287, 18
  %289 = trunc i64 %288 to i32
  %290 = and i32 %289, 1023
  %291 = sext i32 %290 to i64
  %292 = getelementptr inbounds i8, ptr %286, i64 %291
  %293 = load i8, ptr %292, align 1, !tbaa !46
  %294 = load ptr, ptr %22, align 8, !tbaa !37
  %295 = getelementptr inbounds i8, ptr %294, i64 2
  store i8 %293, ptr %295, align 1, !tbaa !46
  %296 = load ptr, ptr %21, align 8, !tbaa !40
  %297 = getelementptr inbounds i32, ptr %296, i64 5
  store ptr %297, ptr %21, align 8, !tbaa !40
  br label %298

298:                                              ; preds = %173
  %299 = load i32, ptr %24, align 4, !tbaa !13
  %300 = add nsw i32 %299, 1
  store i32 %300, ptr %24, align 4, !tbaa !13
  br label %170, !llvm.loop !53

301:                                              ; preds = %170
  call void @llvm.lifetime.end.p0(i64 100, ptr %25) #2
  call void @llvm.lifetime.end.p0(i64 4, ptr %24) #2
  call void @llvm.lifetime.end.p0(i64 8, ptr %23) #2
  call void @llvm.lifetime.end.p0(i64 8, ptr %22) #2
  call void @llvm.lifetime.end.p0(i64 8, ptr %21) #2
  call void @llvm.lifetime.end.p0(i64 8, ptr %20) #2
  call void @llvm.lifetime.end.p0(i64 8, ptr %19) #2
  call void @llvm.lifetime.end.p0(i64 8, ptr %18) #2
  call void @llvm.lifetime.end.p0(i64 8, ptr %17) #2
  call void @llvm.lifetime.end.p0(i64 8, ptr %16) #2
  call void @llvm.lifetime.end.p0(i64 8, ptr %15) #2
  call void @llvm.lifetime.end.p0(i64 8, ptr %14) #2
  call void @llvm.lifetime.end.p0(i64 8, ptr %13) #2
  call void @llvm.lifetime.end.p0(i64 8, ptr %12) #2
  call void @llvm.lifetime.end.p0(i64 8, ptr %11) #2
  ret void
}