; Function Attrs: nofree norecurse nosync nounwind memory(readwrite, inaccessiblemem: none) uwtable
define void @jpeg_idct_5x5(ptr noundef readonly captures(none) %0, ptr noundef readonly captures(none) %1, ptr noundef readonly captures(none) %2, ptr noundef readonly captures(none) %3, i32 noundef %4) local_unnamed_addr #0 {
  %6 = alloca [25 x i32], align 16
  %7 = getelementptr inbounds nuw i8, ptr %0, i64 424
  %8 = load ptr, ptr %7, align 8, !tbaa !3
  call void @llvm.lifetime.start.p0(i64 100, ptr nonnull %6) #2
  %9 = getelementptr inbounds nuw i8, ptr %1, i64 88
  %10 = load ptr, ptr %9, align 8, !tbaa !30
  br label %13

.preheader:                                       ; preds = %13
  %11 = getelementptr inbounds nuw i8, ptr %8, i64 128
  %12 = zext i32 %4 to i64
  br label %84

13:                                               ; preds = %5, %13
  %.0110 = phi i32 [ 0, %5 ], [ %80, %13 ]
  %.0100109 = phi ptr [ %6, %5 ], [ %83, %13 ]
  %.0102108 = phi ptr [ %10, %5 ], [ %82, %13 ]
  %.0103107 = phi ptr [ %2, %5 ], [ %81, %13 ]
  %14 = load i16, ptr %.0103107, align 2, !tbaa !32
  %15 = sext i16 %14 to i64
  %16 = load i16, ptr %.0102108, align 2, !tbaa !32
  %17 = sext i16 %16 to i64
  %18 = shl nsw i64 %15, 13
  %19 = mul nsw i64 %18, %17
  %20 = or disjoint i64 %19, 1024
  %21 = getelementptr inbounds nuw i8, ptr %.0103107, i64 32
  %22 = load i16, ptr %21, align 2, !tbaa !32
  %23 = sext i16 %22 to i64
  %24 = getelementptr inbounds nuw i8, ptr %.0102108, i64 32
  %25 = load i16, ptr %24, align 2, !tbaa !32
  %26 = sext i16 %25 to i64
  %27 = mul nsw i64 %26, %23
  %28 = getelementptr inbounds nuw i8, ptr %.0103107, i64 64
  %29 = load i16, ptr %28, align 2, !tbaa !32
  %30 = sext i16 %29 to i64
  %31 = getelementptr inbounds nuw i8, ptr %.0102108, i64 64
  %32 = load i16, ptr %31, align 2, !tbaa !32
  %33 = sext i16 %32 to i64
  %34 = mul nsw i64 %33, %30
  %35 = add nsw i64 %34, %27
  %36 = mul nsw i64 %35, 6476
  %37 = sub nsw i64 %27, %34
  %38 = mul nsw i64 %37, 2896
  %39 = add nsw i64 %38, %20
  %40 = add nsw i64 %39, %36
  %41 = sub nsw i64 %39, %36
  %.neg105 = mul i64 %37, 8796093010624
  %42 = add i64 %.neg105, %20
  %43 = getelementptr inbounds nuw i8, ptr %.0103107, i64 16
  %44 = load i16, ptr %43, align 2, !tbaa !32
  %45 = sext i16 %44 to i64
  %46 = getelementptr inbounds nuw i8, ptr %.0102108, i64 16
  %47 = load i16, ptr %46, align 2, !tbaa !32
  %48 = sext i16 %47 to i64
  %49 = mul nsw i64 %48, %45
  %50 = getelementptr inbounds nuw i8, ptr %.0103107, i64 48
  %51 = load i16, ptr %50, align 2, !tbaa !32
  %52 = sext i16 %51 to i64
  %53 = getelementptr inbounds nuw i8, ptr %.0102108, i64 48
  %54 = load i16, ptr %53, align 2, !tbaa !32
  %55 = sext i16 %54 to i64
  %56 = mul nsw i64 %55, %52
  %57 = add nsw i64 %56, %49
  %58 = mul nsw i64 %57, 6810
  %59 = mul nsw i64 %49, 4209
  %60 = add nsw i64 %58, %59
  %.neg106 = mul nsw i64 %56, -17828
  %61 = add nsw i64 %58, %.neg106
  %62 = add nsw i64 %60, %40
  %63 = lshr i64 %62, 11
  %64 = trunc i64 %63 to i32
  store i32 %64, ptr %.0100109, align 4, !tbaa !33
  %65 = sub nsw i64 %40, %60
  %66 = lshr i64 %65, 11
  %67 = trunc i64 %66 to i32
  %68 = getelementptr inbounds nuw i8, ptr %.0100109, i64 80
  store i32 %67, ptr %68, align 4, !tbaa !33
  %69 = add nsw i64 %61, %41
  %70 = lshr i64 %69, 11
  %71 = trunc i64 %70 to i32
  %72 = getelementptr inbounds nuw i8, ptr %.0100109, i64 20
  store i32 %71, ptr %72, align 4, !tbaa !33
  %73 = sub nsw i64 %41, %61
  %74 = lshr i64 %73, 11
  %75 = trunc i64 %74 to i32
  %76 = getelementptr inbounds nuw i8, ptr %.0100109, i64 60
  store i32 %75, ptr %76, align 4, !tbaa !33
  %77 = lshr i64 %42, 11
  %78 = trunc i64 %77 to i32
  %79 = getelementptr inbounds nuw i8, ptr %.0100109, i64 40
  store i32 %78, ptr %79, align 4, !tbaa !33
  %80 = add nuw nsw i32 %.0110, 1
  %81 = getelementptr inbounds nuw i8, ptr %.0103107, i64 2
  %82 = getelementptr inbounds nuw i8, ptr %.0102108, i64 2
  %83 = getelementptr inbounds nuw i8, ptr %.0100109, i64 4
  %exitcond.not = icmp eq i32 %80, 5
  br i1 %exitcond.not, label %.preheader, label %13, !llvm.loop !43

84:                                               ; preds = %.preheader, %84
  %indvars.iv = phi i64 [ 0, %.preheader ], [ %indvars.iv.next, %84 ]
  %.1101111 = phi ptr [ %6, %.preheader ], [ %145, %84 ]
  %85 = getelementptr inbounds nuw ptr, ptr %3, i64 %indvars.iv
  %86 = load ptr, ptr %85, align 8, !tbaa !36
  %87 = getelementptr inbounds nuw i8, ptr %86, i64 %12
  %88 = load i32, ptr %.1101111, align 4, !tbaa !33
  %89 = sext i32 %88 to i64
  %90 = shl nsw i64 %89, 13
  %91 = add nsw i64 %90, 131072
  %92 = getelementptr inbounds nuw i8, ptr %.1101111, i64 8
  %93 = load i32, ptr %92, align 4, !tbaa !33
  %94 = zext i32 %93 to i64
  %95 = getelementptr inbounds nuw i8, ptr %.1101111, i64 16
  %96 = load i32, ptr %95, align 4, !tbaa !33
  %97 = zext i32 %96 to i64
  %98 = add nuw nsw i64 %97, %94
  %99 = mul nuw nsw i64 %98, 6476
  %100 = sub nsw i64 %94, %97
  %101 = mul nsw i64 %100, 2896
  %102 = add nsw i64 %101, %91
  %103 = add nsw i64 %102, %99
  %104 = sub nsw i64 %102, %99
  %.neg = mul nsw i64 %100, 268423872
  %105 = add nsw i64 %.neg, %91
  %106 = getelementptr inbounds nuw i8, ptr %.1101111, i64 4
  %107 = load i32, ptr %106, align 4, !tbaa !33
  %108 = zext i32 %107 to i64
  %109 = getelementptr inbounds nuw i8, ptr %.1101111, i64 12
  %110 = load i32, ptr %109, align 4, !tbaa !33
  %111 = zext i32 %110 to i64
  %112 = add nuw nsw i64 %111, %108
  %113 = mul nuw nsw i64 %112, 6810
  %114 = mul nuw nsw i64 %108, 4209
  %115 = add nuw nsw i64 %113, %114
  %.neg104 = mul nsw i64 %111, -17828
  %116 = add nsw i64 %113, %.neg104
  %117 = add nsw i64 %115, %103
  %118 = lshr i64 %117, 18
  %119 = and i64 %118, 1023
  %120 = getelementptr inbounds nuw i8, ptr %11, i64 %119
  %121 = load i8, ptr %120, align 1, !tbaa !37
  store i8 %121, ptr %87, align 1, !tbaa !37
  %122 = sub nsw i64 %103, %115
  %123 = lshr i64 %122, 18
  %124 = and i64 %123, 1023
  %125 = getelementptr inbounds nuw i8, ptr %11, i64 %124
  %126 = load i8, ptr %125, align 1, !tbaa !37
  %127 = getelementptr inbounds nuw i8, ptr %87, i64 4
  store i8 %126, ptr %127, align 1, !tbaa !37
  %128 = add nsw i64 %116, %104
  %129 = lshr i64 %128, 18
  %130 = and i64 %129, 1023
  %131 = getelementptr inbounds nuw i8, ptr %11, i64 %130
  %132 = load i8, ptr %131, align 1, !tbaa !37
  %133 = getelementptr inbounds nuw i8, ptr %87, i64 1
  store i8 %132, ptr %133, align 1, !tbaa !37
  %134 = sub nsw i64 %104, %116
  %135 = lshr i64 %134, 18
  %136 = and i64 %135, 1023
  %137 = getelementptr inbounds nuw i8, ptr %11, i64 %136
  %138 = load i8, ptr %137, align 1, !tbaa !37
  %139 = getelementptr inbounds nuw i8, ptr %87, i64 3
  store i8 %138, ptr %139, align 1, !tbaa !37
  %140 = lshr i64 %105, 18
  %141 = and i64 %140, 1023
  %142 = getelementptr inbounds nuw i8, ptr %11, i64 %141
  %143 = load i8, ptr %142, align 1, !tbaa !37
  %144 = getelementptr inbounds nuw i8, ptr %87, i64 2
  store i8 %143, ptr %144, align 1, !tbaa !37
  %145 = getelementptr inbounds nuw i8, ptr %.1101111, i64 20
  %indvars.iv.next = add nuw nsw i64 %indvars.iv, 1
  %exitcond114.not = icmp eq i64 %indvars.iv.next, 5
  br i1 %exitcond114.not, label %146, label %84, !llvm.loop !44

146:                                              ; preds = %84
  call void @llvm.lifetime.end.p0(i64 100, ptr nonnull %6) #2
  ret void
}